c__builtin__
set
p0
((lp1
S'a4bd6454595de5671e43207384c82b81'
p2
aS'c0962d946d03da98c48cd4b7ef5ed3e7'
p3
aS'8f721f828256f9bac7329f4711c4b041'
p4
aS'f1b41601b73f186b6372d4757d258897'
p5
aS'33ba93467c39948f17b2a209080a2bda'
p6
aS'cbcdcf96447d45fd5dcae14221626abd'
p7
aS'dfb13ea582f3b03fcaeb416a9c3dd717'
p8
aS'c59503f47616d9341f7e427ff1ff14c8'
p9
aS'7182ad724907c2658e4bc6e5382569ab'
p10
aS'949425352f19a4a68b31a7c5380ef9c5'
p11
aS'0706520429a235032dcf9f026042a8c5'
p12
aS'934e6f0fdcbb43386df6b93019138749'
p13
atp14
Rp15
.